EXPORTS 
	??_R0?AVbad_alloc@std@@@8 	 DATA
	??_R0?AVbad_array_new_length@std@@@8 	 DATA
	??_R0?AVexception@std@@@8 	 DATA
	??_R0?AVinvalid_argument@std@@@8 	 DATA
	??_R0?AVlogic_error@std@@@8 	 DATA
	??$?0$$V@?$_Compressed_pair@V?$allocator@D@std@@V?$_String_val@U?$_Simple_types@D@std@@@2@$00@std@@QEAA@U_Zero_then_variadic_args_t@1@@Z
	??$?0$$V@?$_Compressed_pair@V?$allocator@UPair@?$MyUnorderedMap@DH@my_namespace@@@std@@V?$_Vector_val@U?$_Simple_types@UPair@?$MyUnorderedMap@DH@my_namespace@@@std@@@2@$00@std@@QEAA@U_Zero_then_variadic_args_t@1@@Z
	??$?0$$V@?$_Compressed_pair@V?$allocator@UPair@?$MyUnorderedMap@V?$basic_string@DU?$char_traits@D@std@@V?$allocator@D@2@@std@@H@my_namespace@@@std@@V?$_Vector_val@U?$_Simple_types@UPair@?$MyUnorderedMap@V?$basic_string@DU?$char_traits@D@std@@V?$allocator@D@2@@std@@H@my_namespace@@@std@@@2@$00@std@@QEAA@U_Zero_then_variadic_args_t@1@@Z
	??$?0AEBV?$allocator@V?$basic_string@DU?$char_traits@D@std@@V?$allocator@D@2@@std@@@std@@$$V@?$_Compressed_pair@V?$allocator@V?$basic_string@DU?$char_traits@D@std@@V?$allocator@D@2@@std@@@std@@V?$_Vector_val@U?$_Simple_types@V?$basic_string@DU?$char_traits@D@std@@V?$allocator@D@2@@std@@@std@@@2@$00@std@@QEAA@U_One_then_variadic_args_t@1@AEBV?$allocator@V?$basic_string@DU?$char_traits@D@std@@V?$allocator@D@2@@std@@@1@@Z
	??$?0D@?$allocator@U_Container_proxy@std@@@std@@QEAA@AEBV?$allocator@D@1@@Z
	??$?0UPair@?$MyUnorderedMap@DH@my_namespace@@@?$allocator@U_Container_proxy@std@@@std@@QEAA@AEBV?$allocator@UPair@?$MyUnorderedMap@DH@my_namespace@@@1@@Z
	??$?0UPair@?$MyUnorderedMap@V?$basic_string@DU?$char_traits@D@std@@V?$allocator@D@2@@std@@H@my_namespace@@@?$allocator@U_Container_proxy@std@@@std@@QEAA@AEBV?$allocator@UPair@?$MyUnorderedMap@V?$basic_string@DU?$char_traits@D@std@@V?$allocator@D@2@@std@@H@my_namespace@@@1@@Z
	??$?0V?$allocator@D@std@@$$V@?$_Compressed_pair@V?$allocator@D@std@@V?$_String_val@U?$_Simple_types@D@std@@@2@$00@std@@QEAA@U_One_then_variadic_args_t@1@$$QEAV?$allocator@D@1@@Z
	??$?0V?$basic_string@DU?$char_traits@D@std@@V?$allocator@D@2@@std@@@?$allocator@U_Container_proxy@std@@@std@@QEAA@AEBV?$allocator@V?$basic_string@DU?$char_traits@D@std@@V?$allocator@D@2@@std@@@1@@Z
	??$?6DU?$char_traits@D@std@@V?$allocator@D@1@@std@@YAAEAV?$basic_ostream@DU?$char_traits@D@std@@@0@AEAV10@AEBV?$basic_string@DU?$char_traits@D@std@@V?$allocator@D@2@@0@@Z
	??$?6U?$char_traits@D@std@@@std@@YAAEAV?$basic_ostream@DU?$char_traits@D@std@@@0@AEAV10@D@Z
	??$?6U?$char_traits@D@std@@@std@@YAAEAV?$basic_ostream@DU?$char_traits@D@std@@@0@AEAV10@PEBD@Z
	??$?8DU?$char_traits@D@std@@V?$allocator@D@1@@std@@YA_NAEBV?$basic_string@DU?$char_traits@D@std@@V?$allocator@D@2@@0@0@Z
	??$?8UPair@?$MyUnorderedMap@DH@my_namespace@@U012@@std@@YA_NAEBV?$allocator@UPair@?$MyUnorderedMap@DH@my_namespace@@@0@0@Z
	??$?8UPair@?$MyUnorderedMap@V?$basic_string@DU?$char_traits@D@std@@V?$allocator@D@2@@std@@H@my_namespace@@U012@@std@@YA_NAEBV?$allocator@UPair@?$MyUnorderedMap@V?$basic_string@DU?$char_traits@D@std@@V?$allocator@D@2@@std@@H@my_namespace@@@0@0@Z
	??$?RV?$mersenne_twister_engine@I$0CA@$0CHA@$0BIN@$0BP@$0JJAILANP@$0L@$0PPPPPPPP@$06$0JNCMFGIA@$0P@$0OPMGAAAA@$0BC@$0GMAHIJGF@@std@@@?$uniform_int@H@std@@QEBAHAEAV?$mersenne_twister_engine@I$0CA@$0CHA@$0BIN@$0BP@$0JJAILANP@$0L@$0PPPPPPPP@$06$0JNCMFGIA@$0P@$0OPMGAAAA@$0BC@$0GMAHIJGF@@1@@Z
	??$_Alloc_proxy@V?$allocator@U_Container_proxy@std@@@std@@@_Container_base12@std@@QEAAX$$QEAV?$allocator@U_Container_proxy@std@@@1@@Z
	??$_Allocate@$0BA@U_Default_allocate_traits@std@@$0A@@std@@YAPEAX_K@Z
	??$_Allocate_manually_vector_aligned@U_Default_allocate_traits@std@@@std@@YAPEAX_K@Z
	??$_Construct_in_place@PEADAEAPEAD@std@@YAXAEAPEAD0@Z
	??$_Construct_in_place@PEADAEBQEAD@std@@YAXAEAPEADAEBQEAD@Z
	??$_Construct_in_place@U_Container_proxy@std@@PEAU_Container_base12@2@@std@@YAXAEAU_Container_proxy@0@$$QEAPEAU_Container_base12@0@@Z
	??$_Construct_n@PEBV?$basic_string@DU?$char_traits@D@std@@V?$allocator@D@2@@std@@PEBV12@@?$vector@V?$basic_string@DU?$char_traits@D@std@@V?$allocator@D@2@@std@@V?$allocator@V?$basic_string@DU?$char_traits@D@std@@V?$allocator@D@2@@std@@@2@@std@@AEAAX_K$$QEAPEBV?$basic_string@DU?$char_traits@D@std@@V?$allocator@D@2@@1@1@Z
	??$_Convert_size@_K@std@@YA_K_K@Z
	??$_Copy_memmove@PEAUPair@?$MyUnorderedMap@DH@my_namespace@@PEAU123@@std@@YAPEAUPair@?$MyUnorderedMap@DH@my_namespace@@PEAU123@00@Z
	??$_Deallocate@$0BA@$0A@@std@@YAXPEAX_K@Z
	??$_Deallocate_plain@V?$allocator@U_Container_proxy@std@@@std@@@std@@YAXAEAV?$allocator@U_Container_proxy@std@@@0@QEAU_Container_proxy@0@@Z
	??$_Delete_plain_internal@V?$allocator@U_Container_proxy@std@@@std@@@std@@YAXAEAV?$allocator@U_Container_proxy@std@@@0@QEAU_Container_proxy@0@@Z
	??$_Destroy_in_place@PEAD@std@@YAXAEAPEAD@Z
	??$_Destroy_range@V?$allocator@UPair@?$MyUnorderedMap@DH@my_namespace@@@std@@@std@@YAXPEAUPair@?$MyUnorderedMap@DH@my_namespace@@QEAU123@AEAV?$allocator@UPair@?$MyUnorderedMap@DH@my_namespace@@@0@@Z
	??$_Destroy_range@V?$allocator@UPair@?$MyUnorderedMap@V?$basic_string@DU?$char_traits@D@std@@V?$allocator@D@2@@std@@H@my_namespace@@@std@@@std@@YAXPEAUPair@?$MyUnorderedMap@V?$basic_string@DU?$char_traits@D@std@@V?$allocator@D@2@@std@@H@my_namespace@@QEAU123@AEAV?$allocator@UPair@?$MyUnorderedMap@V?$basic_string@DU?$char_traits@D@std@@V?$allocator@D@2@@std@@H@my_namespace@@@0@@Z
	??$_Destroy_range@V?$allocator@V?$basic_string@DU?$char_traits@D@std@@V?$allocator@D@2@@std@@@std@@@std@@YAXPEAV?$basic_string@DU?$char_traits@D@std@@V?$allocator@D@2@@0@QEAV10@AEAV?$allocator@V?$basic_string@DU?$char_traits@D@std@@V?$allocator@D@2@@std@@@0@@Z
	??$_Emplace_back@$$V@?$_Uninitialized_backout_al@V?$allocator@UPair@?$MyUnorderedMap@DH@my_namespace@@@std@@@std@@QEAAXXZ
	??$_Emplace_back@$$V@?$_Uninitialized_backout_al@V?$allocator@UPair@?$MyUnorderedMap@V?$basic_string@DU?$char_traits@D@std@@V?$allocator@D@2@@std@@H@my_namespace@@@std@@@std@@QEAAXXZ
	??$_Emplace_back@AEBV?$basic_string@DU?$char_traits@D@std@@V?$allocator@D@2@@std@@@?$_Uninitialized_backout_al@V?$allocator@V?$basic_string@DU?$char_traits@D@std@@V?$allocator@D@2@@std@@@std@@@std@@QEAAXAEBV?$basic_string@DU?$char_traits@D@std@@V?$allocator@D@2@@1@@Z
	??$_Emplace_back@UPair@?$MyUnorderedMap@DH@my_namespace@@@?$_Uninitialized_backout_al@V?$allocator@UPair@?$MyUnorderedMap@DH@my_namespace@@@std@@@std@@QEAAX$$QEAUPair@?$MyUnorderedMap@DH@my_namespace@@@Z
	??$_Emplace_back@UPair@?$MyUnorderedMap@V?$basic_string@DU?$char_traits@D@std@@V?$allocator@D@2@@std@@H@my_namespace@@@?$_Uninitialized_backout_al@V?$allocator@UPair@?$MyUnorderedMap@V?$basic_string@DU?$char_traits@D@std@@V?$allocator@D@2@@std@@H@my_namespace@@@std@@@std@@QEAAX$$QEAUPair@?$MyUnorderedMap@V?$basic_string@DU?$char_traits@D@std@@V?$allocator@D@2@@std@@H@my_namespace@@@Z
	??$_Eval@V?$mersenne_twister_engine@I$0CA@$0CHA@$0BIN@$0BP@$0JJAILANP@$0L@$0PPPPPPPP@$06$0JNCMFGIA@$0P@$0OPMGAAAA@$0BC@$0GMAHIJGF@@std@@@?$uniform_int@H@std@@AEBAHAEAV?$mersenne_twister_engine@I$0CA@$0CHA@$0BIN@$0BP@$0JJAILANP@$0L@$0PPPPPPPP@$06$0JNCMFGIA@$0P@$0OPMGAAAA@$0BC@$0GMAHIJGF@@1@HH@Z
	??$_Fnv1a_append_value@D@std@@YA_K_KAEBD@Z
	??$_Get_size_of_n@$00@std@@YA_K_K@Z
	??$_Get_size_of_n@$0BA@@std@@YA_K_K@Z
	??$_Get_size_of_n@$0CI@@std@@YA_K_K@Z
	??$_Get_size_of_n@$0DA@@std@@YA_K_K@Z
	??$_Get_size_of_n@$0M@@std@@YA_K_K@Z
	??$_Get_unwrapped@AEBQEAUPair@?$MyUnorderedMap@DH@my_namespace@@@std@@YA?A_TAEBQEAUPair@?$MyUnorderedMap@DH@my_namespace@@@Z
	??$_Get_unwrapped@AEBQEAUPair@?$MyUnorderedMap@V?$basic_string@DU?$char_traits@D@std@@V?$allocator@D@2@@std@@H@my_namespace@@@std@@YA?A_TAEBQEAUPair@?$MyUnorderedMap@V?$basic_string@DU?$char_traits@D@std@@V?$allocator@D@2@@std@@H@my_namespace@@@Z
	??$_Get_unwrapped@AEBQEBV?$basic_string@DU?$char_traits@D@std@@V?$allocator@D@2@@std@@@std@@YA?A_TAEBQEBV?$basic_string@DU?$char_traits@D@std@@V?$allocator@D@2@@0@@Z
	??$_Hash_array_representation@D@std@@YA_KQEBD_K@Z
	??$_Hash_representation@D@std@@YA_KAEBD@Z
	??$_Insert_string@DU?$char_traits@D@std@@_K@std@@YAAEAV?$basic_ostream@DU?$char_traits@D@std@@@0@AEAV10@QEBD_K@Z
	??$_Pocca@V?$allocator@D@std@@@std@@YAXAEAV?$allocator@D@0@AEBV10@@Z
	??$_Pocma@V?$allocator@D@std@@@std@@YAXAEAV?$allocator@D@0@0@Z
	??$_Pocs@V?$allocator@UPair@?$MyUnorderedMap@DH@my_namespace@@@std@@@std@@YAXAEAV?$allocator@UPair@?$MyUnorderedMap@DH@my_namespace@@@0@0@Z
	??$_Pocs@V?$allocator@UPair@?$MyUnorderedMap@V?$basic_string@DU?$char_traits@D@std@@V?$allocator@D@2@@std@@H@my_namespace@@@std@@@std@@YAXAEAV?$allocator@UPair@?$MyUnorderedMap@V?$basic_string@DU?$char_traits@D@std@@V?$allocator@D@2@@std@@H@my_namespace@@@0@0@Z
	??$_Reallocate_for@V<lambda_1>@?1??assign@?$basic_string@DU?$char_traits@D@std@@V?$allocator@D@2@@std@@QEAAAEAV34@QEBD_K@Z@PEBD@?$basic_string@DU?$char_traits@D@std@@V?$allocator@D@2@@std@@AEAAAEAV01@_KV<lambda_1>@?1??assign@01@QEAAAEAV01@QEBD0@Z@PEBD@Z
	??$_Resize@U_Value_init_tag@std@@@?$vector@UPair@?$MyUnorderedMap@DH@my_namespace@@V?$allocator@UPair@?$MyUnorderedMap@DH@my_namespace@@@std@@@std@@AEAAX_KAEBU_Value_init_tag@1@@Z
	??$_Resize@U_Value_init_tag@std@@@?$vector@UPair@?$MyUnorderedMap@V?$basic_string@DU?$char_traits@D@std@@V?$allocator@D@2@@std@@H@my_namespace@@V?$allocator@UPair@?$MyUnorderedMap@V?$basic_string@DU?$char_traits@D@std@@V?$allocator@D@2@@std@@H@my_namespace@@@std@@@std@@AEAAX_KAEBU_Value_init_tag@1@@Z
	??$_Resize_reallocate@U_Value_init_tag@std@@@?$vector@UPair@?$MyUnorderedMap@DH@my_namespace@@V?$allocator@UPair@?$MyUnorderedMap@DH@my_namespace@@@std@@@std@@AEAAX_KAEBU_Value_init_tag@1@@Z
	??$_Resize_reallocate@U_Value_init_tag@std@@@?$vector@UPair@?$MyUnorderedMap@V?$basic_string@DU?$char_traits@D@std@@V?$allocator@D@2@@std@@H@my_namespace@@V?$allocator@UPair@?$MyUnorderedMap@V?$basic_string@DU?$char_traits@D@std@@V?$allocator@D@2@@std@@H@my_namespace@@@std@@@std@@AEAAX_KAEBU_Value_init_tag@1@@Z
	??$_Swap_adl@PEAUPair@?$MyUnorderedMap@DH@my_namespace@@@std@@YAXAEAPEAUPair@?$MyUnorderedMap@DH@my_namespace@@0@Z
	??$_Swap_adl@PEAUPair@?$MyUnorderedMap@V?$basic_string@DU?$char_traits@D@std@@V?$allocator@D@2@@std@@H@my_namespace@@@std@@YAXAEAPEAUPair@?$MyUnorderedMap@V?$basic_string@DU?$char_traits@D@std@@V?$allocator@D@2@@std@@H@my_namespace@@0@Z
	??$_To_address@PEAUPair@?$MyUnorderedMap@DH@my_namespace@@@std@@YA?A_PAEBQEAUPair@?$MyUnorderedMap@DH@my_namespace@@@Z
	??$_Traits_equal@U?$char_traits@D@std@@@std@@YA_NQEBD_K01@Z
	??$_Unfancy@D@std@@YAPEADPEAD@Z
	??$_Unfancy@UPair@?$MyUnorderedMap@DH@my_namespace@@@std@@YAPEAUPair@?$MyUnorderedMap@DH@my_namespace@@PEAU123@@Z
	??$_Unfancy@UPair@?$MyUnorderedMap@V?$basic_string@DU?$char_traits@D@std@@V?$allocator@D@2@@std@@H@my_namespace@@@std@@YAPEAUPair@?$MyUnorderedMap@V?$basic_string@DU?$char_traits@D@std@@V?$allocator@D@2@@std@@H@my_namespace@@PEAU123@@Z
	??$_Unfancy@U_Container_proxy@std@@@std@@YAPEAU_Container_proxy@0@PEAU10@@Z
	??$_Unfancy@V?$basic_string@DU?$char_traits@D@std@@V?$allocator@D@2@@std@@@std@@YAPEAV?$basic_string@DU?$char_traits@D@std@@V?$allocator@D@2@@0@PEAV10@@Z
	??$_Uninitialized_copy@PEBV?$basic_string@DU?$char_traits@D@std@@V?$allocator@D@2@@std@@V?$allocator@V?$basic_string@DU?$char_traits@D@std@@V?$allocator@D@2@@std@@@2@@std@@YAPEAV?$basic_string@DU?$char_traits@D@std@@V?$allocator@D@2@@0@QEBV10@0PEAV10@AEAV?$allocator@V?$basic_string@DU?$char_traits@D@std@@V?$allocator@D@2@@std@@@0@@Z
	??$_Uninitialized_move@PEAUPair@?$MyUnorderedMap@DH@my_namespace@@V?$allocator@UPair@?$MyUnorderedMap@DH@my_namespace@@@std@@@std@@YAPEAUPair@?$MyUnorderedMap@DH@my_namespace@@QEAU123@0PEAU123@AEAV?$allocator@UPair@?$MyUnorderedMap@DH@my_namespace@@@0@@Z
	??$_Uninitialized_move@PEAUPair@?$MyUnorderedMap@V?$basic_string@DU?$char_traits@D@std@@V?$allocator@D@2@@std@@H@my_namespace@@V?$allocator@UPair@?$MyUnorderedMap@V?$basic_string@DU?$char_traits@D@std@@V?$allocator@D@2@@std@@H@my_namespace@@@std@@@std@@YAPEAUPair@?$MyUnorderedMap@V?$basic_string@DU?$char_traits@D@std@@V?$allocator@D@2@@std@@H@my_namespace@@QEAU123@0PEAU123@AEAV?$allocator@UPair@?$MyUnorderedMap@V?$basic_string@DU?$char_traits@D@std@@V?$allocator@D@2@@std@@H@my_namespace@@@0@@Z
	??$_Uninitialized_value_construct_n@V?$allocator@UPair@?$MyUnorderedMap@DH@my_namespace@@@std@@@std@@YAPEAUPair@?$MyUnorderedMap@DH@my_namespace@@PEAU123@_KAEAV?$allocator@UPair@?$MyUnorderedMap@DH@my_namespace@@@0@@Z
	??$_Uninitialized_value_construct_n@V?$allocator@UPair@?$MyUnorderedMap@V?$basic_string@DU?$char_traits@D@std@@V?$allocator@D@2@@std@@H@my_namespace@@@std@@@std@@YAPEAUPair@?$MyUnorderedMap@V?$basic_string@DU?$char_traits@D@std@@V?$allocator@D@2@@std@@H@my_namespace@@PEAU123@_KAEAV?$allocator@UPair@?$MyUnorderedMap@V?$basic_string@DU?$char_traits@D@std@@V?$allocator@D@2@@std@@H@my_namespace@@@0@@Z
	??$_Voidify_iter@PEAD@std@@YAPEAXPEAD@Z
	??$_Voidify_iter@PEAPEAD@std@@YAPEAXPEAPEAD@Z
	??$_Voidify_iter@PEAUPair@?$MyUnorderedMap@DH@my_namespace@@@std@@YAPEAXPEAUPair@?$MyUnorderedMap@DH@my_namespace@@@Z
	??$_Voidify_iter@PEAUPair@?$MyUnorderedMap@V?$basic_string@DU?$char_traits@D@std@@V?$allocator@D@2@@std@@H@my_namespace@@@std@@YAPEAXPEAUPair@?$MyUnorderedMap@V?$basic_string@DU?$char_traits@D@std@@V?$allocator@D@2@@std@@H@my_namespace@@@Z
	??$_Voidify_iter@PEAU_Container_proxy@std@@@std@@YAPEAXPEAU_Container_proxy@0@@Z
	??$_Voidify_iter@PEAV?$basic_string@DU?$char_traits@D@std@@V?$allocator@D@2@@std@@@std@@YAPEAXPEAV?$basic_string@DU?$char_traits@D@std@@V?$allocator@D@2@@0@@Z
	??$addressof@$$CBV?$_String_val@U?$_Simple_types@D@std@@@std@@@std@@YAPEBV?$_String_val@U?$_Simple_types@D@std@@@0@AEBV10@@Z
	??$addressof@$$CBV?$basic_string@DU?$char_traits@D@std@@V?$allocator@D@2@@std@@@std@@YAPEBV?$basic_string@DU?$char_traits@D@std@@V?$allocator@D@2@@0@AEBV10@@Z
	??$addressof@D@std@@YAPEADAEAD@Z
	??$addressof@PEAD@std@@YAPEAPEADAEAPEAD@Z
	??$addressof@U_Container_base12@std@@@std@@YAPEAU_Container_base12@0@AEAU10@@Z
	??$addressof@U_Container_proxy@std@@@std@@YAPEAU_Container_proxy@0@AEAU10@@Z
	??$addressof@V?$_String_val@U?$_Simple_types@D@std@@@std@@@std@@YAPEAV?$_String_val@U?$_Simple_types@D@std@@@0@AEAV10@@Z
	??$addressof@V?$basic_string@DU?$char_traits@D@std@@V?$allocator@D@2@@std@@@std@@YAPEAV?$basic_string@DU?$char_traits@D@std@@V?$allocator@D@2@@0@AEAV10@@Z
	??$addressof@V?$vector@UPair@?$MyUnorderedMap@DH@my_namespace@@V?$allocator@UPair@?$MyUnorderedMap@DH@my_namespace@@@std@@@std@@@std@@YAPEAV?$vector@UPair@?$MyUnorderedMap@DH@my_namespace@@V?$allocator@UPair@?$MyUnorderedMap@DH@my_namespace@@@std@@@0@AEAV10@@Z
	??$addressof@V?$vector@UPair@?$MyUnorderedMap@V?$basic_string@DU?$char_traits@D@std@@V?$allocator@D@2@@std@@H@my_namespace@@V?$allocator@UPair@?$MyUnorderedMap@V?$basic_string@DU?$char_traits@D@std@@V?$allocator@D@2@@std@@H@my_namespace@@@std@@@std@@@std@@YAPEAV?$vector@UPair@?$MyUnorderedMap@V?$basic_string@DU?$char_traits@D@std@@V?$allocator@D@2@@std@@H@my_namespace@@V?$allocator@UPair@?$MyUnorderedMap@V?$basic_string@DU?$char_traits@D@std@@V?$allocator@D@2@@std@@H@my_namespace@@@std@@@0@AEAV10@@Z
	??$construct@UPair@?$MyUnorderedMap@DH@my_namespace@@$$V@?$_Default_allocator_traits@V?$allocator@UPair@?$MyUnorderedMap@DH@my_namespace@@@std@@@std@@SAXAEAV?$allocator@UPair@?$MyUnorderedMap@DH@my_namespace@@@1@QEAUPair@?$MyUnorderedMap@DH@my_namespace@@@Z
	??$construct@UPair@?$MyUnorderedMap@DH@my_namespace@@U123@@?$_Default_allocator_traits@V?$allocator@UPair@?$MyUnorderedMap@DH@my_namespace@@@std@@@std@@SAXAEAV?$allocator@UPair@?$MyUnorderedMap@DH@my_namespace@@@1@QEAUPair@?$MyUnorderedMap@DH@my_namespace@@$$QEAU345@@Z
	??$construct@UPair@?$MyUnorderedMap@V?$basic_string@DU?$char_traits@D@std@@V?$allocator@D@2@@std@@H@my_namespace@@$$V@?$_Default_allocator_traits@V?$allocator@UPair@?$MyUnorderedMap@V?$basic_string@DU?$char_traits@D@std@@V?$allocator@D@2@@std@@H@my_namespace@@@std@@@std@@SAXAEAV?$allocator@UPair@?$MyUnorderedMap@V?$basic_string@DU?$char_traits@D@std@@V?$allocator@D@2@@std@@H@my_namespace@@@1@QEAUPair@?$MyUnorderedMap@V?$basic_string@DU?$char_traits@D@std@@V?$allocator@D@2@@std@@H@my_namespace@@@Z
	??$construct@UPair@?$MyUnorderedMap@V?$basic_string@DU?$char_traits@D@std@@V?$allocator@D@2@@std@@H@my_namespace@@U123@@?$_Default_allocator_traits@V?$allocator@UPair@?$MyUnorderedMap@V?$basic_string@DU?$char_traits@D@std@@V?$allocator@D@2@@std@@H@my_namespace@@@std@@@std@@SAXAEAV?$allocator@UPair@?$MyUnorderedMap@V?$basic_string@DU?$char_traits@D@std@@V?$allocator@D@2@@std@@H@my_namespace@@@1@QEAUPair@?$MyUnorderedMap@V?$basic_string@DU?$char_traits@D@std@@V?$allocator@D@2@@std@@H@my_namespace@@$$QEAU345@@Z
	??$construct@V?$basic_string@DU?$char_traits@D@std@@V?$allocator@D@2@@std@@AEBV12@@?$_Default_allocator_traits@V?$allocator@V?$basic_string@DU?$char_traits@D@std@@V?$allocator@D@2@@std@@@std@@@std@@SAXAEAV?$allocator@V?$basic_string@DU?$char_traits@D@std@@V?$allocator@D@2@@std@@@1@QEAV?$basic_string@DU?$char_traits@D@std@@V?$allocator@D@2@@1@AEBV31@@Z
	??$construct_at@DAEBDX@std@@YAPEADQEADAEBD@Z
	??$construct_at@PEADAEAPEADX@std@@YAPEAPEADQEAPEADAEAPEAD@Z
	??$construct_at@PEADAEBQEADX@std@@YAPEAPEADQEAPEADAEBQEAD@Z
	??$construct_at@UPair@?$MyUnorderedMap@DH@my_namespace@@$$VX@std@@YAPEAUPair@?$MyUnorderedMap@DH@my_namespace@@QEAU123@@Z
	??$construct_at@UPair@?$MyUnorderedMap@DH@my_namespace@@U123@X@std@@YAPEAUPair@?$MyUnorderedMap@DH@my_namespace@@QEAU123@$$QEAU123@@Z
	??$construct_at@UPair@?$MyUnorderedMap@V?$basic_string@DU?$char_traits@D@std@@V?$allocator@D@2@@std@@H@my_namespace@@$$VX@std@@YAPEAUPair@?$MyUnorderedMap@V?$basic_string@DU?$char_traits@D@std@@V?$allocator@D@2@@std@@H@my_namespace@@QEAU123@@Z
	??$construct_at@UPair@?$MyUnorderedMap@V?$basic_string@DU?$char_traits@D@std@@V?$allocator@D@2@@std@@H@my_namespace@@U123@X@std@@YAPEAUPair@?$MyUnorderedMap@V?$basic_string@DU?$char_traits@D@std@@V?$allocator@D@2@@std@@H@my_namespace@@QEAU123@$$QEAU123@@Z
	??$construct_at@U_Container_proxy@std@@PEAU_Container_base12@2@X@std@@YAPEAU_Container_proxy@0@QEAU10@$$QEAPEAU_Container_base12@0@@Z
	??$construct_at@V?$basic_string@DU?$char_traits@D@std@@V?$allocator@D@2@@std@@AEBV12@X@std@@YAPEAV?$basic_string@DU?$char_traits@D@std@@V?$allocator@D@2@@0@QEAV10@AEBV10@@Z
	??$destroy@UPair@?$MyUnorderedMap@V?$basic_string@DU?$char_traits@D@std@@V?$allocator@D@2@@std@@H@my_namespace@@@?$_Default_allocator_traits@V?$allocator@UPair@?$MyUnorderedMap@V?$basic_string@DU?$char_traits@D@std@@V?$allocator@D@2@@std@@H@my_namespace@@@std@@@std@@SAXAEAV?$allocator@UPair@?$MyUnorderedMap@V?$basic_string@DU?$char_traits@D@std@@V?$allocator@D@2@@std@@H@my_namespace@@@1@QEAUPair@?$MyUnorderedMap@V?$basic_string@DU?$char_traits@D@std@@V?$allocator@D@2@@std@@H@my_namespace@@@Z
	??$destroy@V?$basic_string@DU?$char_traits@D@std@@V?$allocator@D@2@@std@@@?$_Default_allocator_traits@V?$allocator@V?$basic_string@DU?$char_traits@D@std@@V?$allocator@D@2@@std@@@std@@@std@@SAXAEAV?$allocator@V?$basic_string@DU?$char_traits@D@std@@V?$allocator@D@2@@std@@@1@QEAV?$basic_string@DU?$char_traits@D@std@@V?$allocator@D@2@@1@@Z
	??$destroy_at@UPair@?$MyUnorderedMap@V?$basic_string@DU?$char_traits@D@std@@V?$allocator@D@2@@std@@H@my_namespace@@@std@@YAXQEAUPair@?$MyUnorderedMap@V?$basic_string@DU?$char_traits@D@std@@V?$allocator@D@2@@std@@H@my_namespace@@@Z
	??$destroy_at@V?$basic_string@DU?$char_traits@D@std@@V?$allocator@D@2@@std@@@std@@YAXQEAV?$basic_string@DU?$char_traits@D@std@@V?$allocator@D@2@@0@@Z
	??$endl@DU?$char_traits@D@std@@@std@@YAAEAV?$basic_ostream@DU?$char_traits@D@std@@@0@AEAV10@@Z
	??$exchange@PEAU_Container_proxy@std@@$$T@std@@YAPEAU_Container_proxy@0@AEAPEAU10@$$QEA$$T@Z
	??$forward@AEAPEAD@std@@YAAEAPEADAEAPEAD@Z
	??$forward@AEBD@std@@YAAEBDAEBD@Z
	??$forward@AEBQEAD@std@@YAAEBQEADAEBQEAD@Z
	??$forward@AEBV?$allocator@V?$basic_string@DU?$char_traits@D@std@@V?$allocator@D@2@@std@@@std@@@std@@YAAEBV?$allocator@V?$basic_string@DU?$char_traits@D@std@@V?$allocator@D@2@@std@@@0@AEBV10@@Z
	??$forward@AEBV?$basic_string@DU?$char_traits@D@std@@V?$allocator@D@2@@std@@@std@@YAAEBV?$basic_string@DU?$char_traits@D@std@@V?$allocator@D@2@@0@AEBV10@@Z
	??$forward@PEAU_Container_base12@std@@@std@@YA$$QEAPEAU_Container_base12@0@AEAPEAU10@@Z
	??$forward@PEBV?$basic_string@DU?$char_traits@D@std@@V?$allocator@D@2@@std@@@std@@YA$$QEAPEBV?$basic_string@DU?$char_traits@D@std@@V?$allocator@D@2@@0@AEAPEBV10@@Z
	??$forward@UPair@?$MyUnorderedMap@DH@my_namespace@@@std@@YA$$QEAUPair@?$MyUnorderedMap@DH@my_namespace@@AEAU123@@Z
	??$forward@UPair@?$MyUnorderedMap@V?$basic_string@DU?$char_traits@D@std@@V?$allocator@D@2@@std@@H@my_namespace@@@std@@YA$$QEAUPair@?$MyUnorderedMap@V?$basic_string@DU?$char_traits@D@std@@V?$allocator@D@2@@std@@H@my_namespace@@AEAU123@@Z
	??$forward@V?$allocator@D@std@@@std@@YA$$QEAV?$allocator@D@0@AEAV10@@Z
	??$hashFunction@D@my_namespace@@YA_KAEBD_K@Z
	??$hashFunction@V?$basic_string@DU?$char_traits@D@std@@V?$allocator@D@2@@std@@@my_namespace@@YA_KAEBV?$basic_string@DU?$char_traits@D@std@@V?$allocator@D@2@@std@@_K@Z
	??$max@_K@std@@YAAEB_KAEB_K0@Z
	??$min@_K@std@@YAAEB_KAEB_K0@Z
	??$move@AEAPEAUPair@?$MyUnorderedMap@DH@my_namespace@@@std@@YA$$QEAPEAUPair@?$MyUnorderedMap@DH@my_namespace@@AEAPEAU123@@Z
	??$move@AEAPEAUPair@?$MyUnorderedMap@V?$basic_string@DU?$char_traits@D@std@@V?$allocator@D@2@@std@@H@my_namespace@@@std@@YA$$QEAPEAUPair@?$MyUnorderedMap@V?$basic_string@DU?$char_traits@D@std@@V?$allocator@D@2@@std@@H@my_namespace@@AEAPEAU123@@Z
	??$move@AEAUPair@?$MyUnorderedMap@DH@my_namespace@@@std@@YA$$QEAUPair@?$MyUnorderedMap@DH@my_namespace@@AEAU123@@Z
	??$move@AEAUPair@?$MyUnorderedMap@V?$basic_string@DU?$char_traits@D@std@@V?$allocator@D@2@@std@@H@my_namespace@@@std@@YA$$QEAUPair@?$MyUnorderedMap@V?$basic_string@DU?$char_traits@D@std@@V?$allocator@D@2@@std@@H@my_namespace@@AEAU123@@Z
	??$move@AEAV?$allocator@D@std@@@std@@YA$$QEAV?$allocator@D@0@AEAV10@@Z
	??$swap@PEAUPair@?$MyUnorderedMap@DH@my_namespace@@$0A@@std@@YAXAEAPEAUPair@?$MyUnorderedMap@DH@my_namespace@@0@Z
	??$swap@PEAUPair@?$MyUnorderedMap@V?$basic_string@DU?$char_traits@D@std@@V?$allocator@D@2@@std@@H@my_namespace@@$0A@@std@@YAXAEAPEAUPair@?$MyUnorderedMap@V?$basic_string@DU?$char_traits@D@std@@V?$allocator@D@2@@std@@H@my_namespace@@0@Z
	??$swap@UPair@?$MyUnorderedMap@DH@my_namespace@@V?$allocator@UPair@?$MyUnorderedMap@DH@my_namespace@@@std@@@std@@YAXAEAV?$vector@UPair@?$MyUnorderedMap@DH@my_namespace@@V?$allocator@UPair@?$MyUnorderedMap@DH@my_namespace@@@std@@@0@0@Z
	??$swap@UPair@?$MyUnorderedMap@V?$basic_string@DU?$char_traits@D@std@@V?$allocator@D@2@@std@@H@my_namespace@@V?$allocator@UPair@?$MyUnorderedMap@V?$basic_string@DU?$char_traits@D@std@@V?$allocator@D@2@@std@@H@my_namespace@@@std@@@std@@YAXAEAV?$vector@UPair@?$MyUnorderedMap@V?$basic_string@DU?$char_traits@D@std@@V?$allocator@D@2@@std@@H@my_namespace@@V?$allocator@UPair@?$MyUnorderedMap@V?$basic_string@DU?$char_traits@D@std@@V?$allocator@D@2@@std@@H@my_namespace@@@std@@@0@0@Z
	??$to_address@UPair@?$MyUnorderedMap@DH@my_namespace@@@std@@YAPEAUPair@?$MyUnorderedMap@DH@my_namespace@@QEAU123@@Z
	??0?$MyUnorderedMap@DH@my_namespace@@QEAA@_K@Z
	??0?$MyUnorderedMap@V?$basic_string@DU?$char_traits@D@std@@V?$allocator@D@2@@std@@H@my_namespace@@QEAA@_K0@Z
	??0?$_Container_proxy_ptr12@V?$allocator@U_Container_proxy@std@@@std@@@std@@QEAA@AEAV?$allocator@U_Container_proxy@std@@@1@AEAU_Container_base12@1@@Z
	??0?$_Rng_from_urng@IV?$mersenne_twister_engine@I$0CA@$0CHA@$0BIN@$0BP@$0JJAILANP@$0L@$0PPPPPPPP@$06$0JNCMFGIA@$0P@$0OPMGAAAA@$0BC@$0GMAHIJGF@@std@@@std@@QEAA@AEAV?$mersenne_twister_engine@I$0CA@$0CHA@$0BIN@$0BP@$0JJAILANP@$0L@$0PPPPPPPP@$06$0JNCMFGIA@$0P@$0OPMGAAAA@$0BC@$0GMAHIJGF@@1@@Z
	??0?$_String_val@U?$_Simple_types@D@std@@@std@@QEAA@XZ
	??0?$_Uninitialized_backout_al@V?$allocator@UPair@?$MyUnorderedMap@DH@my_namespace@@@std@@@std@@QEAA@PEAUPair@?$MyUnorderedMap@DH@my_namespace@@AEAV?$allocator@UPair@?$MyUnorderedMap@DH@my_namespace@@@1@@Z
	??0?$_Uninitialized_backout_al@V?$allocator@UPair@?$MyUnorderedMap@V?$basic_string@DU?$char_traits@D@std@@V?$allocator@D@2@@std@@H@my_namespace@@@std@@@std@@QEAA@PEAUPair@?$MyUnorderedMap@V?$basic_string@DU?$char_traits@D@std@@V?$allocator@D@2@@std@@H@my_namespace@@AEAV?$allocator@UPair@?$MyUnorderedMap@V?$basic_string@DU?$char_traits@D@std@@V?$allocator@D@2@@std@@H@my_namespace@@@1@@Z
	??0?$_Uninitialized_backout_al@V?$allocator@V?$basic_string@DU?$char_traits@D@std@@V?$allocator@D@2@@std@@@std@@@std@@QEAA@PEAV?$basic_string@DU?$char_traits@D@std@@V?$allocator@D@2@@1@AEAV?$allocator@V?$basic_string@DU?$char_traits@D@std@@V?$allocator@D@2@@std@@@1@@Z
	??0?$_Vector_val@U?$_Simple_types@UPair@?$MyUnorderedMap@DH@my_namespace@@@std@@@std@@QEAA@XZ
	??0?$_Vector_val@U?$_Simple_types@UPair@?$MyUnorderedMap@V?$basic_string@DU?$char_traits@D@std@@V?$allocator@D@2@@std@@H@my_namespace@@@std@@@std@@QEAA@XZ
	??0?$_Vector_val@U?$_Simple_types@V?$basic_string@DU?$char_traits@D@std@@V?$allocator@D@2@@std@@@std@@@std@@QEAA@XZ
	??0?$allocator@D@std@@QEAA@XZ
	??0?$allocator@UPair@?$MyUnorderedMap@DH@my_namespace@@@std@@QEAA@XZ
	??0?$allocator@UPair@?$MyUnorderedMap@V?$basic_string@DU?$char_traits@D@std@@V?$allocator@D@2@@std@@H@my_namespace@@@std@@QEAA@XZ
	??0?$allocator@V?$basic_string@DU?$char_traits@D@std@@V?$allocator@D@2@@std@@@std@@QEAA@XZ
	??0?$basic_string@DU?$char_traits@D@std@@V?$allocator@D@2@@std@@QEAA@$$QEAV01@@Z
	??0?$basic_string@DU?$char_traits@D@std@@V?$allocator@D@2@@std@@QEAA@AEBV01@@Z
	??0?$basic_string@DU?$char_traits@D@std@@V?$allocator@D@2@@std@@QEAA@QEBD@Z
	??0?$basic_string@DU?$char_traits@D@std@@V?$allocator@D@2@@std@@QEAA@XZ
	??0?$initializer_list@V?$basic_string@DU?$char_traits@D@std@@V?$allocator@D@2@@std@@@std@@QEAA@PEBV?$basic_string@DU?$char_traits@D@std@@V?$allocator@D@2@@1@0@Z
	??0?$mersenne_twister@I$0CA@$0CHA@$0BIN@$0BP@$0JJAILANP@$0L@$06$0JNCMFGIA@$0P@$0OPMGAAAA@$0BC@@std@@QEAA@III@Z
	??0?$mersenne_twister_engine@I$0CA@$0CHA@$0BIN@$0BP@$0JJAILANP@$0L@$0PPPPPPPP@$06$0JNCMFGIA@$0P@$0OPMGAAAA@$0BC@$0GMAHIJGF@@std@@QEAA@I@Z
	??0?$uniform_int@H@std@@QEAA@HH@Z
	??0?$uniform_int_distribution@H@std@@QEAA@HH@Z
	??0?$vector@UPair@?$MyUnorderedMap@DH@my_namespace@@V?$allocator@UPair@?$MyUnorderedMap@DH@my_namespace@@@std@@@std@@QEAA@XZ
	??0?$vector@UPair@?$MyUnorderedMap@V?$basic_string@DU?$char_traits@D@std@@V?$allocator@D@2@@std@@H@my_namespace@@V?$allocator@UPair@?$MyUnorderedMap@V?$basic_string@DU?$char_traits@D@std@@V?$allocator@D@2@@std@@H@my_namespace@@@std@@@std@@QEAA@XZ
	??0?$vector@V?$basic_string@DU?$char_traits@D@std@@V?$allocator@D@2@@std@@V?$allocator@V?$basic_string@DU?$char_traits@D@std@@V?$allocator@D@2@@std@@@2@@std@@QEAA@V?$initializer_list@V?$basic_string@DU?$char_traits@D@std@@V?$allocator@D@2@@std@@@1@AEBV?$allocator@V?$basic_string@DU?$char_traits@D@std@@V?$allocator@D@2@@std@@@1@@Z
	??0Pair@?$MyUnorderedMap@DH@my_namespace@@QEAA@XZ
	??0Pair@?$MyUnorderedMap@V?$basic_string@DU?$char_traits@D@std@@V?$allocator@D@2@@std@@H@my_namespace@@QEAA@$$QEAU012@@Z
	??0Pair@?$MyUnorderedMap@V?$basic_string@DU?$char_traits@D@std@@V?$allocator@D@2@@std@@H@my_namespace@@QEAA@V?$basic_string@DU?$char_traits@D@std@@V?$allocator@D@2@@std@@H@Z
	??0Pair@?$MyUnorderedMap@V?$basic_string@DU?$char_traits@D@std@@V?$allocator@D@2@@std@@H@my_namespace@@QEAA@XZ
	??0_Basic_container_proxy_ptr12@std@@IEAA@XZ
	??0_Bxty@?$_String_val@U?$_Simple_types@D@std@@@std@@QEAA@XZ
	??0_Container_base12@std@@QEAA@XZ
	??0_Container_proxy@std@@QEAA@PEAU_Container_base12@1@@Z
	??0_Sentry_base@?$basic_ostream@DU?$char_traits@D@std@@@std@@QEAA@AEAV12@@Z
	??0bad_alloc@std@@AEAA@QEBD@Z
	??0bad_alloc@std@@QEAA@AEBV01@@Z
	??0bad_array_new_length@std@@QEAA@AEBV01@@Z
	??0bad_array_new_length@std@@QEAA@XZ
	??0exception@std@@QEAA@AEBV01@@Z
	??0exception@std@@QEAA@QEBD@Z
	??0exception@std@@QEAA@QEBDH@Z
	??0invalid_argument@std@@QEAA@AEBV01@@Z
	??0invalid_argument@std@@QEAA@PEBD@Z
	??0logic_error@std@@QEAA@AEBV01@@Z
	??0logic_error@std@@QEAA@PEBD@Z
	??0param_type@?$uniform_int@H@std@@QEAA@HH@Z
	??0random_device@std@@QEAA@XZ
	??0sentry@?$basic_ostream@DU?$char_traits@D@std@@@std@@QEAA@AEAV12@@Z
	??1?$MyUnorderedMap@DH@my_namespace@@QEAA@XZ
	??1?$MyUnorderedMap@V?$basic_string@DU?$char_traits@D@std@@V?$allocator@D@2@@std@@H@my_namespace@@QEAA@XZ
	??1?$_Compressed_pair@V?$allocator@D@std@@V?$_String_val@U?$_Simple_types@D@std@@@2@$00@std@@QEAA@XZ
	??1?$_Container_proxy_ptr12@V?$allocator@U_Container_proxy@std@@@std@@@std@@QEAA@XZ
	??1?$_String_val@U?$_Simple_types@D@std@@@std@@QEAA@XZ
	??1?$_Tidy_guard@V?$vector@V?$basic_string@DU?$char_traits@D@std@@V?$allocator@D@2@@std@@V?$allocator@V?$basic_string@DU?$char_traits@D@std@@V?$allocator@D@2@@std@@@2@@std@@@std@@QEAA@XZ
	??1?$_Uninitialized_backout_al@V?$allocator@UPair@?$MyUnorderedMap@DH@my_namespace@@@std@@@std@@QEAA@XZ
	??1?$_Uninitialized_backout_al@V?$allocator@UPair@?$MyUnorderedMap@V?$basic_string@DU?$char_traits@D@std@@V?$allocator@D@2@@std@@H@my_namespace@@@std@@@std@@QEAA@XZ
	??1?$_Uninitialized_backout_al@V?$allocator@V?$basic_string@DU?$char_traits@D@std@@V?$allocator@D@2@@std@@@std@@@std@@QEAA@XZ
	??1?$basic_string@DU?$char_traits@D@std@@V?$allocator@D@2@@std@@QEAA@XZ
	??1?$vector@UPair@?$MyUnorderedMap@DH@my_namespace@@V?$allocator@UPair@?$MyUnorderedMap@DH@my_namespace@@@std@@@std@@QEAA@XZ
	??1?$vector@UPair@?$MyUnorderedMap@V?$basic_string@DU?$char_traits@D@std@@V?$allocator@D@2@@std@@H@my_namespace@@V?$allocator@UPair@?$MyUnorderedMap@V?$basic_string@DU?$char_traits@D@std@@V?$allocator@D@2@@std@@H@my_namespace@@@std@@@std@@QEAA@XZ
	??1?$vector@V?$basic_string@DU?$char_traits@D@std@@V?$allocator@D@2@@std@@V?$allocator@V?$basic_string@DU?$char_traits@D@std@@V?$allocator@D@2@@std@@@2@@std@@QEAA@XZ
	??1Pair@?$MyUnorderedMap@V?$basic_string@DU?$char_traits@D@std@@V?$allocator@D@2@@std@@H@my_namespace@@QEAA@XZ
	??1_Bxty@?$_String_val@U?$_Simple_types@D@std@@@std@@QEAA@XZ
	??1_Sentry_base@?$basic_ostream@DU?$char_traits@D@std@@@std@@QEAA@XZ
	??1bad_alloc@std@@UEAA@XZ
	??1bad_array_new_length@std@@UEAA@XZ
	??1exception@std@@UEAA@XZ
	??1invalid_argument@std@@UEAA@XZ
	??1logic_error@std@@UEAA@XZ
	??1sentry@?$basic_ostream@DU?$char_traits@D@std@@@std@@QEAA@XZ
	??2@YAPEAX_KPEAX@Z
	??4?$basic_string@DU?$char_traits@D@std@@V?$allocator@D@2@@std@@QEAAAEAV01@$$QEAV01@@Z
	??4?$basic_string@DU?$char_traits@D@std@@V?$allocator@D@2@@std@@QEAAAEAV01@AEBV01@@Z
	??4Pair@?$MyUnorderedMap@V?$basic_string@DU?$char_traits@D@std@@V?$allocator@D@2@@std@@H@my_namespace@@QEAAAEAU012@$$QEAU012@@Z
	??A?$basic_string@DU?$char_traits@D@std@@V?$allocator@D@2@@std@@QEBAAEBD_K@Z
	??A?$vector@UPair@?$MyUnorderedMap@DH@my_namespace@@V?$allocator@UPair@?$MyUnorderedMap@DH@my_namespace@@@std@@@std@@QEAAAEAUPair@?$MyUnorderedMap@DH@my_namespace@@_K@Z
	??A?$vector@UPair@?$MyUnorderedMap@V?$basic_string@DU?$char_traits@D@std@@V?$allocator@D@2@@std@@H@my_namespace@@V?$allocator@UPair@?$MyUnorderedMap@V?$basic_string@DU?$char_traits@D@std@@V?$allocator@D@2@@std@@H@my_namespace@@@std@@@std@@QEAAAEAUPair@?$MyUnorderedMap@V?$basic_string@DU?$char_traits@D@std@@V?$allocator@D@2@@std@@H@my_namespace@@_K@Z
	??A?$vector@V?$basic_string@DU?$char_traits@D@std@@V?$allocator@D@2@@std@@V?$allocator@V?$basic_string@DU?$char_traits@D@std@@V?$allocator@D@2@@std@@@2@@std@@QEAAAEAV?$basic_string@DU?$char_traits@D@std@@V?$allocator@D@2@@1@_K@Z
	??Bsentry@?$basic_ostream@DU?$char_traits@D@std@@@std@@QEBA_NXZ
	??R<lambda_1>@?1??assign@?$basic_string@DU?$char_traits@D@std@@V?$allocator@D@2@@std@@QEAAAEAV23@QEBD_K@Z@QEBA@QEAD10@Z
	??R?$_Conditionally_enabled_hash@D$00@std@@QEBA_KAEBD@Z
	??R?$_Rng_from_urng@IV?$mersenne_twister_engine@I$0CA@$0CHA@$0BIN@$0BP@$0JJAILANP@$0L@$0PPPPPPPP@$06$0JNCMFGIA@$0P@$0OPMGAAAA@$0BC@$0GMAHIJGF@@std@@@std@@QEAAII@Z
	??R?$hash@V?$basic_string@DU?$char_traits@D@std@@V?$allocator@D@2@@std@@@std@@QEBA_KAEBV?$basic_string@DU?$char_traits@D@std@@V?$allocator@D@2@@1@@Z
	??R?$mersenne_twister@I$0CA@$0CHA@$0BIN@$0BP@$0JJAILANP@$0L@$06$0JNCMFGIA@$0P@$0OPMGAAAA@$0BC@@std@@QEAAIXZ
	??Rrandom_device@std@@QEAAIXZ
	?_Adjust@?$uniform_int@H@std@@CAII@Z
	?_Adjust_manually_vector_aligned@std@@YAXAEAPEAXAEA_K@Z
	?_Allocate@_Default_allocate_traits@std@@SAPEAX_K@Z
	?_Buy_nonzero@?$vector@V?$basic_string@DU?$char_traits@D@std@@V?$allocator@D@2@@std@@V?$allocator@V?$basic_string@DU?$char_traits@D@std@@V?$allocator@D@2@@std@@@2@@std@@AEAAX_K@Z
	?_Buy_raw@?$vector@V?$basic_string@DU?$char_traits@D@std@@V?$allocator@D@2@@std@@V?$allocator@V?$basic_string@DU?$char_traits@D@std@@V?$allocator@D@2@@std@@@2@@std@@AEAAX_K@Z
	?_Calculate_growth@?$basic_string@DU?$char_traits@D@std@@V?$allocator@D@2@@std@@AEBA_K_K@Z
	?_Calculate_growth@?$basic_string@DU?$char_traits@D@std@@V?$allocator@D@2@@std@@CA_K_K00@Z
	?_Calculate_growth@?$vector@UPair@?$MyUnorderedMap@DH@my_namespace@@V?$allocator@UPair@?$MyUnorderedMap@DH@my_namespace@@@std@@@std@@AEBA_K_K@Z
	?_Calculate_growth@?$vector@UPair@?$MyUnorderedMap@V?$basic_string@DU?$char_traits@D@std@@V?$allocator@D@2@@std@@H@my_namespace@@V?$allocator@UPair@?$MyUnorderedMap@V?$basic_string@DU?$char_traits@D@std@@V?$allocator@D@2@@std@@H@my_namespace@@@std@@@std@@AEBA_K_K@Z
	?_Change_array@?$vector@UPair@?$MyUnorderedMap@DH@my_namespace@@V?$allocator@UPair@?$MyUnorderedMap@DH@my_namespace@@@std@@@std@@AEAAXQEAUPair@?$MyUnorderedMap@DH@my_namespace@@_K1@Z
	?_Change_array@?$vector@UPair@?$MyUnorderedMap@V?$basic_string@DU?$char_traits@D@std@@V?$allocator@D@2@@std@@H@my_namespace@@V?$allocator@UPair@?$MyUnorderedMap@V?$basic_string@DU?$char_traits@D@std@@V?$allocator@D@2@@std@@H@my_namespace@@@std@@@std@@AEAAXQEAUPair@?$MyUnorderedMap@V?$basic_string@DU?$char_traits@D@std@@V?$allocator@D@2@@std@@H@my_namespace@@_K1@Z
	?_Construct_lv_contents@?$basic_string@DU?$char_traits@D@std@@V?$allocator@D@2@@std@@AEAAXAEBV12@@Z
	?_Do_hash@?$hash@D@std@@SA_KAEBD@Z
	?_Equal@?$basic_string@DU?$char_traits@D@std@@V?$allocator@D@2@@std@@QEBA_NAEBV12@@Z
	?_Fnv1a_append_bytes@std@@YA_K_KQEBE_K@Z
	?_Get_all_bits@?$_Rng_from_urng@IV?$mersenne_twister_engine@I$0CA@$0CHA@$0BIN@$0BP@$0JJAILANP@$0L@$0PPPPPPPP@$06$0JNCMFGIA@$0P@$0OPMGAAAA@$0BC@$0GMAHIJGF@@std@@@std@@QEAAIXZ
	?_Get_bits@?$_Rng_from_urng@IV?$mersenne_twister_engine@I$0CA@$0CHA@$0BIN@$0BP@$0JJAILANP@$0L@$0PPPPPPPP@$06$0JNCMFGIA@$0P@$0OPMGAAAA@$0BC@$0GMAHIJGF@@std@@@std@@AEAAIXZ
	?_Get_first@?$_Compressed_pair@V?$allocator@D@std@@V?$_String_val@U?$_Simple_types@D@std@@@2@$00@std@@QEAAAEAV?$allocator@D@2@XZ
	?_Get_first@?$_Compressed_pair@V?$allocator@D@std@@V?$_String_val@U?$_Simple_types@D@std@@@2@$00@std@@QEBAAEBV?$allocator@D@2@XZ
	?_Get_first@?$_Compressed_pair@V?$allocator@UPair@?$MyUnorderedMap@DH@my_namespace@@@std@@V?$_Vector_val@U?$_Simple_types@UPair@?$MyUnorderedMap@DH@my_namespace@@@std@@@2@$00@std@@QEAAAEAV?$allocator@UPair@?$MyUnorderedMap@DH@my_namespace@@@2@XZ
	?_Get_first@?$_Compressed_pair@V?$allocator@UPair@?$MyUnorderedMap@DH@my_namespace@@@std@@V?$_Vector_val@U?$_Simple_types@UPair@?$MyUnorderedMap@DH@my_namespace@@@std@@@2@$00@std@@QEBAAEBV?$allocator@UPair@?$MyUnorderedMap@DH@my_namespace@@@2@XZ
	?_Get_first@?$_Compressed_pair@V?$allocator@UPair@?$MyUnorderedMap@V?$basic_string@DU?$char_traits@D@std@@V?$allocator@D@2@@std@@H@my_namespace@@@std@@V?$_Vector_val@U?$_Simple_types@UPair@?$MyUnorderedMap@V?$basic_string@DU?$char_traits@D@std@@V?$allocator@D@2@@std@@H@my_namespace@@@std@@@2@$00@std@@QEAAAEAV?$allocator@UPair@?$MyUnorderedMap@V?$basic_string@DU?$char_traits@D@std@@V?$allocator@D@2@@std@@H@my_namespace@@@2@XZ
	?_Get_first@?$_Compressed_pair@V?$allocator@UPair@?$MyUnorderedMap@V?$basic_string@DU?$char_traits@D@std@@V?$allocator@D@2@@std@@H@my_namespace@@@std@@V?$_Vector_val@U?$_Simple_types@UPair@?$MyUnorderedMap@V?$basic_string@DU?$char_traits@D@std@@V?$allocator@D@2@@std@@H@my_namespace@@@std@@@2@$00@std@@QEBAAEBV?$allocator@UPair@?$MyUnorderedMap@V?$basic_string@DU?$char_traits@D@std@@V?$allocator@D@2@@std@@H@my_namespace@@@2@XZ
	?_Get_first@?$_Compressed_pair@V?$allocator@V?$basic_string@DU?$char_traits@D@std@@V?$allocator@D@2@@std@@@std@@V?$_Vector_val@U?$_Simple_types@V?$basic_string@DU?$char_traits@D@std@@V?$allocator@D@2@@std@@@std@@@2@$00@std@@QEAAAEAV?$allocator@V?$basic_string@DU?$char_traits@D@std@@V?$allocator@D@2@@std@@@2@XZ
	?_Get_first@?$_Compressed_pair@V?$allocator@V?$basic_string@DU?$char_traits@D@std@@V?$allocator@D@2@@std@@@std@@V?$_Vector_val@U?$_Simple_types@V?$basic_string@DU?$char_traits@D@std@@V?$allocator@D@2@@std@@@std@@@2@$00@std@@QEBAAEBV?$allocator@V?$basic_string@DU?$char_traits@D@std@@V?$allocator@D@2@@std@@@2@XZ
	?_Getal@?$basic_string@DU?$char_traits@D@std@@V?$allocator@D@2@@std@@AEAAAEAV?$allocator@D@2@XZ
	?_Getal@?$basic_string@DU?$char_traits@D@std@@V?$allocator@D@2@@std@@AEBAAEBV?$allocator@D@2@XZ
	?_Getal@?$vector@UPair@?$MyUnorderedMap@DH@my_namespace@@V?$allocator@UPair@?$MyUnorderedMap@DH@my_namespace@@@std@@@std@@AEAAAEAV?$allocator@UPair@?$MyUnorderedMap@DH@my_namespace@@@2@XZ
	?_Getal@?$vector@UPair@?$MyUnorderedMap@DH@my_namespace@@V?$allocator@UPair@?$MyUnorderedMap@DH@my_namespace@@@std@@@std@@AEBAAEBV?$allocator@UPair@?$MyUnorderedMap@DH@my_namespace@@@2@XZ
	?_Getal@?$vector@UPair@?$MyUnorderedMap@V?$basic_string@DU?$char_traits@D@std@@V?$allocator@D@2@@std@@H@my_namespace@@V?$allocator@UPair@?$MyUnorderedMap@V?$basic_string@DU?$char_traits@D@std@@V?$allocator@D@2@@std@@H@my_namespace@@@std@@@std@@AEAAAEAV?$allocator@UPair@?$MyUnorderedMap@V?$basic_string@DU?$char_traits@D@std@@V?$allocator@D@2@@std@@H@my_namespace@@@2@XZ
	?_Getal@?$vector@UPair@?$MyUnorderedMap@V?$basic_string@DU?$char_traits@D@std@@V?$allocator@D@2@@std@@H@my_namespace@@V?$allocator@UPair@?$MyUnorderedMap@V?$basic_string@DU?$char_traits@D@std@@V?$allocator@D@2@@std@@H@my_namespace@@@std@@@std@@AEBAAEBV?$allocator@UPair@?$MyUnorderedMap@V?$basic_string@DU?$char_traits@D@std@@V?$allocator@D@2@@std@@H@my_namespace@@@2@XZ
	?_Getal@?$vector@V?$basic_string@DU?$char_traits@D@std@@V?$allocator@D@2@@std@@V?$allocator@V?$basic_string@DU?$char_traits@D@std@@V?$allocator@D@2@@std@@@2@@std@@AEAAAEAV?$allocator@V?$basic_string@DU?$char_traits@D@std@@V?$allocator@D@2@@std@@@2@XZ
	?_Getal@?$vector@V?$basic_string@DU?$char_traits@D@std@@V?$allocator@D@2@@std@@V?$allocator@V?$basic_string@DU?$char_traits@D@std@@V?$allocator@D@2@@std@@@2@@std@@AEBAAEBV?$allocator@V?$basic_string@DU?$char_traits@D@std@@V?$allocator@D@2@@std@@@2@XZ
	?_Init@param_type@?$uniform_int@H@std@@QEAAXHH@Z
	?_Large_string_engaged@?$_String_val@U?$_Simple_types@D@std@@@std@@QEBA_NXZ
	?_Memcpy_val_from@?$basic_string@DU?$char_traits@D@std@@V?$allocator@D@2@@std@@AEAAXAEBV12@@Z
	?_Myptr@?$_String_val@U?$_Simple_types@D@std@@@std@@QEAAPEADXZ
	?_Myptr@?$_String_val@U?$_Simple_types@D@std@@@std@@QEBAPEBDXZ
	?_Orphan_all@_Container_base12@std@@QEAAXXZ
	?_Orphan_all_locked_v3@_Container_base12@std@@AEAAXXZ
	?_Orphan_all_unlocked_v3@_Container_base12@std@@AEAAXXZ
	?_Orphan_range@?$vector@UPair@?$MyUnorderedMap@DH@my_namespace@@V?$allocator@UPair@?$MyUnorderedMap@DH@my_namespace@@@std@@@std@@AEBAXPEAUPair@?$MyUnorderedMap@DH@my_namespace@@0@Z
	?_Orphan_range@?$vector@UPair@?$MyUnorderedMap@V?$basic_string@DU?$char_traits@D@std@@V?$allocator@D@2@@std@@H@my_namespace@@V?$allocator@UPair@?$MyUnorderedMap@V?$basic_string@DU?$char_traits@D@std@@V?$allocator@D@2@@std@@H@my_namespace@@@std@@@std@@AEBAXPEAUPair@?$MyUnorderedMap@V?$basic_string@DU?$char_traits@D@std@@V?$allocator@D@2@@std@@H@my_namespace@@0@Z
	?_Orphan_range_locked@?$vector@UPair@?$MyUnorderedMap@DH@my_namespace@@V?$allocator@UPair@?$MyUnorderedMap@DH@my_namespace@@@std@@@std@@AEBAXPEAUPair@?$MyUnorderedMap@DH@my_namespace@@0@Z
	?_Orphan_range_locked@?$vector@UPair@?$MyUnorderedMap@V?$basic_string@DU?$char_traits@D@std@@V?$allocator@D@2@@std@@H@my_namespace@@V?$allocator@UPair@?$MyUnorderedMap@V?$basic_string@DU?$char_traits@D@std@@V?$allocator@D@2@@std@@H@my_namespace@@@std@@@std@@AEBAXPEAUPair@?$MyUnorderedMap@V?$basic_string@DU?$char_traits@D@std@@V?$allocator@D@2@@std@@H@my_namespace@@0@Z
	?_Orphan_range_unlocked@?$vector@UPair@?$MyUnorderedMap@DH@my_namespace@@V?$allocator@UPair@?$MyUnorderedMap@DH@my_namespace@@@std@@@std@@AEBAXPEAUPair@?$MyUnorderedMap@DH@my_namespace@@0@Z
	?_Orphan_range_unlocked@?$vector@UPair@?$MyUnorderedMap@V?$basic_string@DU?$char_traits@D@std@@V?$allocator@D@2@@std@@H@my_namespace@@V?$allocator@UPair@?$MyUnorderedMap@V?$basic_string@DU?$char_traits@D@std@@V?$allocator@D@2@@std@@H@my_namespace@@@std@@@std@@AEBAXPEAUPair@?$MyUnorderedMap@V?$basic_string@DU?$char_traits@D@std@@V?$allocator@D@2@@std@@H@my_namespace@@0@Z
	?_Refill_lower@?$mersenne_twister@I$0CA@$0CHA@$0BIN@$0BP@$0JJAILANP@$0L@$06$0JNCMFGIA@$0P@$0OPMGAAAA@$0BC@@std@@IEAAXXZ
	?_Refill_upper@?$mersenne_twister@I$0CA@$0CHA@$0BIN@$0BP@$0JJAILANP@$0L@$06$0JNCMFGIA@$0P@$0OPMGAAAA@$0BC@@std@@IEAAXXZ
	?_Release@?$_Uninitialized_backout_al@V?$allocator@UPair@?$MyUnorderedMap@DH@my_namespace@@@std@@@std@@QEAAPEAUPair@?$MyUnorderedMap@DH@my_namespace@@XZ
	?_Release@?$_Uninitialized_backout_al@V?$allocator@UPair@?$MyUnorderedMap@V?$basic_string@DU?$char_traits@D@std@@V?$allocator@D@2@@std@@H@my_namespace@@@std@@@std@@QEAAPEAUPair@?$MyUnorderedMap@V?$basic_string@DU?$char_traits@D@std@@V?$allocator@D@2@@std@@H@my_namespace@@XZ
	?_Release@?$_Uninitialized_backout_al@V?$allocator@V?$basic_string@DU?$char_traits@D@std@@V?$allocator@D@2@@std@@@std@@@std@@QEAAPEAV?$basic_string@DU?$char_traits@D@std@@V?$allocator@D@2@@2@XZ
	?_Release@_Basic_container_proxy_ptr12@std@@QEAAXXZ
	?_Swap_proxy_and_iterators@?$basic_string@DU?$char_traits@D@std@@V?$allocator@D@2@@std@@AEAAXAEAV12@@Z
	?_Swap_proxy_and_iterators@_Container_base12@std@@QEAAXAEAU12@@Z
	?_Swap_proxy_and_iterators_locked@_Container_base12@std@@AEAAXAEAU12@@Z
	?_Swap_proxy_and_iterators_unlocked@_Container_base12@std@@AEAAXAEAU12@@Z
	?_Swap_val@?$_Vector_val@U?$_Simple_types@UPair@?$MyUnorderedMap@DH@my_namespace@@@std@@@std@@QEAAXAEAV12@@Z
	?_Swap_val@?$_Vector_val@U?$_Simple_types@UPair@?$MyUnorderedMap@V?$basic_string@DU?$char_traits@D@std@@V?$allocator@D@2@@std@@H@my_namespace@@@std@@@std@@QEAAXAEAV12@@Z
	?_Take_contents@?$basic_string@DU?$char_traits@D@std@@V?$allocator@D@2@@std@@AEAAXAEAV12@@Z
	?_Throw_bad_array_new_length@std@@YAXXZ
	?_Tidy@?$vector@UPair@?$MyUnorderedMap@DH@my_namespace@@V?$allocator@UPair@?$MyUnorderedMap@DH@my_namespace@@@std@@@std@@AEAAXXZ
	?_Tidy@?$vector@UPair@?$MyUnorderedMap@V?$basic_string@DU?$char_traits@D@std@@V?$allocator@D@2@@std@@H@my_namespace@@V?$allocator@UPair@?$MyUnorderedMap@V?$basic_string@DU?$char_traits@D@std@@V?$allocator@D@2@@std@@H@my_namespace@@@std@@@std@@AEAAXXZ
	?_Tidy@?$vector@V?$basic_string@DU?$char_traits@D@std@@V?$allocator@D@2@@std@@V?$allocator@V?$basic_string@DU?$char_traits@D@std@@V?$allocator@D@2@@std@@@2@@std@@AEAAXXZ
	?_Tidy_deallocate@?$basic_string@DU?$char_traits@D@std@@V?$allocator@D@2@@std@@AEAAXXZ
	?_Tidy_init@?$basic_string@DU?$char_traits@D@std@@V?$allocator@D@2@@std@@AEAAXXZ
	?_Unchecked_begin@?$vector@UPair@?$MyUnorderedMap@V?$basic_string@DU?$char_traits@D@std@@V?$allocator@D@2@@std@@H@my_namespace@@V?$allocator@UPair@?$MyUnorderedMap@V?$basic_string@DU?$char_traits@D@std@@V?$allocator@D@2@@std@@H@my_namespace@@@std@@@std@@QEAAPEAUPair@?$MyUnorderedMap@V?$basic_string@DU?$char_traits@D@std@@V?$allocator@D@2@@std@@H@my_namespace@@XZ
	?_Unchecked_end@?$vector@UPair@?$MyUnorderedMap@V?$basic_string@DU?$char_traits@D@std@@V?$allocator@D@2@@std@@H@my_namespace@@V?$allocator@UPair@?$MyUnorderedMap@V?$basic_string@DU?$char_traits@D@std@@V?$allocator@D@2@@std@@H@my_namespace@@@std@@@std@@QEAAPEAUPair@?$MyUnorderedMap@V?$basic_string@DU?$char_traits@D@std@@V?$allocator@D@2@@std@@H@my_namespace@@XZ
	?_Xlen_string@std@@YAXXZ
	?_Xlength@?$vector@UPair@?$MyUnorderedMap@DH@my_namespace@@V?$allocator@UPair@?$MyUnorderedMap@DH@my_namespace@@@std@@@std@@CAXXZ
	?_Xlength@?$vector@UPair@?$MyUnorderedMap@V?$basic_string@DU?$char_traits@D@std@@V?$allocator@D@2@@std@@H@my_namespace@@V?$allocator@UPair@?$MyUnorderedMap@V?$basic_string@DU?$char_traits@D@std@@V?$allocator@D@2@@std@@H@my_namespace@@@std@@@std@@CAXXZ
	?_Xlength@?$vector@V?$basic_string@DU?$char_traits@D@std@@V?$allocator@D@2@@std@@V?$allocator@V?$basic_string@DU?$char_traits@D@std@@V?$allocator@D@2@@std@@@2@@std@@CAXXZ
	?__empty_global_delete@@YAXPEAX@Z
	?__empty_global_delete@@YAXPEAXW4align_val_t@std@@@Z
	?__empty_global_delete@@YAXPEAX_K@Z
	?__empty_global_delete@@YAXPEAX_KW4align_val_t@std@@@Z
	?allocate@?$allocator@D@std@@QEAAPEAD_K@Z
	?allocate@?$allocator@UPair@?$MyUnorderedMap@DH@my_namespace@@@std@@QEAAPEAUPair@?$MyUnorderedMap@DH@my_namespace@@_K@Z
	?allocate@?$allocator@UPair@?$MyUnorderedMap@V?$basic_string@DU?$char_traits@D@std@@V?$allocator@D@2@@std@@H@my_namespace@@@std@@QEAAPEAUPair@?$MyUnorderedMap@V?$basic_string@DU?$char_traits@D@std@@V?$allocator@D@2@@std@@H@my_namespace@@_K@Z
	?allocate@?$allocator@U_Container_proxy@std@@@std@@QEAAPEAU_Container_proxy@2@_K@Z
	?allocate@?$allocator@V?$basic_string@DU?$char_traits@D@std@@V?$allocator@D@2@@std@@@std@@QEAAPEAV?$basic_string@DU?$char_traits@D@std@@V?$allocator@D@2@@2@_K@Z
	?assign@?$_Char_traits@DH@std@@SAPEADQEAD_KD@Z
	?assign@?$_Char_traits@DH@std@@SAXAEADAEBD@Z
	?assign@?$_Narrow_char_traits@DH@std@@SAPEADQEAD_KD@Z
	?assign@?$_Narrow_char_traits@DH@std@@SAXAEADAEBD@Z
	?assign@?$basic_string@DU?$char_traits@D@std@@V?$allocator@D@2@@std@@QEAAAEAV12@QEBD@Z
	?assign@?$basic_string@DU?$char_traits@D@std@@V?$allocator@D@2@@std@@QEAAAEAV12@QEBD_K@Z
	?begin@?$initializer_list@V?$basic_string@DU?$char_traits@D@std@@V?$allocator@D@2@@std@@@std@@QEBAPEBV?$basic_string@DU?$char_traits@D@std@@V?$allocator@D@2@@2@XZ
	?c_str@?$basic_string@DU?$char_traits@D@std@@V?$allocator@D@2@@std@@QEBAPEBDXZ
	?capacity@?$vector@UPair@?$MyUnorderedMap@DH@my_namespace@@V?$allocator@UPair@?$MyUnorderedMap@DH@my_namespace@@@std@@@std@@QEBA_KXZ
	?capacity@?$vector@UPair@?$MyUnorderedMap@V?$basic_string@DU?$char_traits@D@std@@V?$allocator@D@2@@std@@H@my_namespace@@V?$allocator@UPair@?$MyUnorderedMap@V?$basic_string@DU?$char_traits@D@std@@V?$allocator@D@2@@std@@H@my_namespace@@@std@@@std@@QEBA_KXZ
	?compare@?$_Narrow_char_traits@DH@std@@SAHQEBD0_K@Z
	?contains@?$MyUnorderedMap@DH@my_namespace@@QEAA_NAEBD@Z
	?contains@?$MyUnorderedMap@V?$basic_string@DU?$char_traits@D@std@@V?$allocator@D@2@@std@@H@my_namespace@@QEAA_NAEBV?$basic_string@DU?$char_traits@D@std@@V?$allocator@D@2@@std@@@Z
	?copy@?$_Char_traits@DH@std@@SAPEADQEADQEBD_K@Z
	?data@?$basic_string@DU?$char_traits@D@std@@V?$allocator@D@2@@std@@QEBAPEBDXZ
	?deallocate@?$_Default_allocator_traits@V?$allocator@U_Container_proxy@std@@@std@@@std@@SAXAEAV?$allocator@U_Container_proxy@std@@@2@QEAU_Container_proxy@2@_K@Z
	?deallocate@?$allocator@D@std@@QEAAXQEAD_K@Z
	?deallocate@?$allocator@UPair@?$MyUnorderedMap@DH@my_namespace@@@std@@QEAAXQEAUPair@?$MyUnorderedMap@DH@my_namespace@@_K@Z
	?deallocate@?$allocator@UPair@?$MyUnorderedMap@V?$basic_string@DU?$char_traits@D@std@@V?$allocator@D@2@@std@@H@my_namespace@@@std@@QEAAXQEAUPair@?$MyUnorderedMap@V?$basic_string@DU?$char_traits@D@std@@V?$allocator@D@2@@std@@H@my_namespace@@_K@Z
	?deallocate@?$allocator@U_Container_proxy@std@@@std@@QEAAXQEAU_Container_proxy@2@_K@Z
	?deallocate@?$allocator@V?$basic_string@DU?$char_traits@D@std@@V?$allocator@D@2@@std@@@std@@QEAAXQEAV?$basic_string@DU?$char_traits@D@std@@V?$allocator@D@2@@2@_K@Z
	?end@?$initializer_list@V?$basic_string@DU?$char_traits@D@std@@V?$allocator@D@2@@std@@@std@@QEBAPEBV?$basic_string@DU?$char_traits@D@std@@V?$allocator@D@2@@2@XZ
	?eof@?$_Narrow_char_traits@DH@std@@SAHXZ
	?eq_int_type@?$_Narrow_char_traits@DH@std@@SA_NAEBH0@Z
	?erase@?$MyUnorderedMap@V?$basic_string@DU?$char_traits@D@std@@V?$allocator@D@2@@std@@H@my_namespace@@QEAA_NAEBV?$basic_string@DU?$char_traits@D@std@@V?$allocator@D@2@@std@@@Z
	?find@?$MyUnorderedMap@DH@my_namespace@@AEAAPEAUPair@12@AEBD@Z
	?find@?$MyUnorderedMap@V?$basic_string@DU?$char_traits@D@std@@V?$allocator@D@2@@std@@H@my_namespace@@AEAAPEAUPair@12@AEBV?$basic_string@DU?$char_traits@D@std@@V?$allocator@D@2@@std@@@Z
	?grow@?$MyUnorderedMap@DH@my_namespace@@QEAAXXZ
	?grow@?$MyUnorderedMap@V?$basic_string@DU?$char_traits@D@std@@V?$allocator@D@2@@std@@H@my_namespace@@QEAAXXZ
	?insert@?$MyUnorderedMap@DH@my_namespace@@QEAA_NAEBDAEBH@Z
	?insert@?$MyUnorderedMap@V?$basic_string@DU?$char_traits@D@std@@V?$allocator@D@2@@std@@H@my_namespace@@QEAA_NAEBV?$basic_string@DU?$char_traits@D@std@@V?$allocator@D@2@@std@@AEBH@Z
	?insert_or_assign@?$MyUnorderedMap@V?$basic_string@DU?$char_traits@D@std@@V?$allocator@D@2@@std@@H@my_namespace@@QEAA_NAEBV?$basic_string@DU?$char_traits@D@std@@V?$allocator@D@2@@std@@AEBH@Z
	?is_constant_evaluated@std@@YA_NXZ
	?length@?$_Narrow_char_traits@DH@std@@SA_KQEBD@Z
	?length@?$basic_string@DU?$char_traits@D@std@@V?$allocator@D@2@@std@@QEBA_KXZ
	?max@?$mersenne_twister_engine@I$0CA@$0CHA@$0BIN@$0BP@$0JJAILANP@$0L@$0PPPPPPPP@$06$0JNCMFGIA@$0P@$0OPMGAAAA@$0BC@$0GMAHIJGF@@std@@SAIXZ
	?max@?$numeric_limits@_J@std@@SA_JXZ
	?max_size@?$_Default_allocator_traits@V?$allocator@D@std@@@std@@SA_KAEBV?$allocator@D@2@@Z
	?max_size@?$_Default_allocator_traits@V?$allocator@UPair@?$MyUnorderedMap@DH@my_namespace@@@std@@@std@@SA_KAEBV?$allocator@UPair@?$MyUnorderedMap@DH@my_namespace@@@2@@Z
	?max_size@?$_Default_allocator_traits@V?$allocator@UPair@?$MyUnorderedMap@V?$basic_string@DU?$char_traits@D@std@@V?$allocator@D@2@@std@@H@my_namespace@@@std@@@std@@SA_KAEBV?$allocator@UPair@?$MyUnorderedMap@V?$basic_string@DU?$char_traits@D@std@@V?$allocator@D@2@@std@@H@my_namespace@@@2@@Z
	?max_size@?$_Default_allocator_traits@V?$allocator@V?$basic_string@DU?$char_traits@D@std@@V?$allocator@D@2@@std@@@std@@@std@@SA_KAEBV?$allocator@V?$basic_string@DU?$char_traits@D@std@@V?$allocator@D@2@@std@@@2@@Z
	?max_size@?$basic_string@DU?$char_traits@D@std@@V?$allocator@D@2@@std@@QEBA_KXZ
	?max_size@?$vector@UPair@?$MyUnorderedMap@DH@my_namespace@@V?$allocator@UPair@?$MyUnorderedMap@DH@my_namespace@@@std@@@std@@QEBA_KXZ
	?max_size@?$vector@UPair@?$MyUnorderedMap@V?$basic_string@DU?$char_traits@D@std@@V?$allocator@D@2@@std@@H@my_namespace@@V?$allocator@UPair@?$MyUnorderedMap@V?$basic_string@DU?$char_traits@D@std@@V?$allocator@D@2@@std@@H@my_namespace@@@std@@@std@@QEBA_KXZ
	?max_size@?$vector@V?$basic_string@DU?$char_traits@D@std@@V?$allocator@D@2@@std@@V?$allocator@V?$basic_string@DU?$char_traits@D@std@@V?$allocator@D@2@@std@@@2@@std@@QEBA_KXZ
	?min@?$mersenne_twister_engine@I$0CA@$0CHA@$0BIN@$0BP@$0JJAILANP@$0L@$0PPPPPPPP@$06$0JNCMFGIA@$0P@$0OPMGAAAA@$0BC@$0GMAHIJGF@@std@@SAIXZ
	?move@?$_Char_traits@DH@std@@SAPEADQEADQEBD_K@Z
	?print@?$MyUnorderedMap@V?$basic_string@DU?$char_traits@D@std@@V?$allocator@D@2@@std@@H@my_namespace@@QEAAXXZ
	?resize@?$vector@UPair@?$MyUnorderedMap@DH@my_namespace@@V?$allocator@UPair@?$MyUnorderedMap@DH@my_namespace@@@std@@@std@@QEAAX_K@Z
	?resize@?$vector@UPair@?$MyUnorderedMap@V?$basic_string@DU?$char_traits@D@std@@V?$allocator@D@2@@std@@H@my_namespace@@V?$allocator@UPair@?$MyUnorderedMap@V?$basic_string@DU?$char_traits@D@std@@V?$allocator@D@2@@std@@H@my_namespace@@@std@@@std@@QEAAX_K@Z
	?romanToDecimal@my_namespace@@YAHAEBV?$basic_string@DU?$char_traits@D@std@@V?$allocator@D@2@@std@@@Z
	?search@?$MyUnorderedMap@DH@my_namespace@@QEAAPEAHAEBD@Z
	?seed@?$mersenne_twister@I$0CA@$0CHA@$0BIN@$0BP@$0JJAILANP@$0L@$06$0JNCMFGIA@$0P@$0OPMGAAAA@$0BC@@std@@QEAAXII@Z
	?select_on_container_copy_construction@?$_Default_allocator_traits@V?$allocator@D@std@@@std@@SA?AV?$allocator@D@2@AEBV32@@Z
	?size@?$basic_string@DU?$char_traits@D@std@@V?$allocator@D@2@@std@@QEBA_KXZ
	?size@?$initializer_list@V?$basic_string@DU?$char_traits@D@std@@V?$allocator@D@2@@std@@@std@@QEBA_KXZ
	?size@?$vector@UPair@?$MyUnorderedMap@DH@my_namespace@@V?$allocator@UPair@?$MyUnorderedMap@DH@my_namespace@@@std@@@std@@QEBA_KXZ
	?size@?$vector@UPair@?$MyUnorderedMap@V?$basic_string@DU?$char_traits@D@std@@V?$allocator@D@2@@std@@H@my_namespace@@V?$allocator@UPair@?$MyUnorderedMap@V?$basic_string@DU?$char_traits@D@std@@V?$allocator@D@2@@std@@H@my_namespace@@@std@@@std@@QEBA_KXZ
	?size@?$vector@V?$basic_string@DU?$char_traits@D@std@@V?$allocator@D@2@@std@@V?$allocator@V?$basic_string@DU?$char_traits@D@std@@V?$allocator@D@2@@std@@@2@@std@@QEBA_KXZ
	?swap@?$vector@UPair@?$MyUnorderedMap@DH@my_namespace@@V?$allocator@UPair@?$MyUnorderedMap@DH@my_namespace@@@std@@@std@@QEAAXAEAV12@@Z
	?swap@?$vector@UPair@?$MyUnorderedMap@V?$basic_string@DU?$char_traits@D@std@@V?$allocator@D@2@@std@@H@my_namespace@@V?$allocator@UPair@?$MyUnorderedMap@V?$basic_string@DU?$char_traits@D@std@@V?$allocator@D@2@@std@@H@my_namespace@@@std@@@std@@QEAAXAEAV12@@Z
	?what@exception@std@@UEBAPEBDXZ
	main
